; Function Attrs: nounwind sspstrong uwtable
define internal fastcc i32 @r_less(i64 noundef %0, i64 noundef %1) unnamed_addr #0 {
  %3 = tail call i64 (i64, i64, i32, ...) @rb_funcall(i64 noundef %0, i64 noundef 135, i32 noundef 1, i64 noundef %1) #13
  %4 = icmp eq i64 %3, 4
  br i1 %4, label %7, label %5

5:                                                ; preds = %2
  %6 = tail call i32 @rb_cmpint(i64 noundef %3, i64 noundef %0, i64 noundef %1) #13
  br label %7

7:                                                ; preds = %2, %5
  %.0 = phi i32 [ %6, %5 ], [ 2147483647, %2 ]
  ret i32 %.0
}